(dp0
S'METTS MARK'
p1
(dp2
S'to_messages'
p3
I807
sS'deferral_payments'
p4
S'NaN'
p5
sS'expenses'
p6
I94299
sS'poi'
p7
I00
sS'deferred_income'
p8
cnumpy.core.multiarray
scalar
p9
(cnumpy
dtype
p10
(S'f8'
p11
I0
I1
tp12
Rp13
(I3
S'<'
p14
NNNI-1
I-1
I0
tp15
bS'\x00\x00\x00\x00\xb8\x8b\x02\xc1'
p16
tp17
Rp18
sS'bonus_salary_ratio'
p19
g9
(g13
S'\xcdu`Q\xa5>\xfa?'
p20
tp21
Rp22
sS'long_term_incentive'
p23
g5
sS'email_address'
p24
S'mark.metts@enron.com'
p25
sS'restricted_stock_deferred'
p26
g5
sS'shared_receipt_with_poi'
p27
I702
sS'loan_advances'
p28
g5
sS'from_messages'
p29
I29
sS'other'
p30
I1740
sS'director_fees'
p31
g5
sS'bonus'
p32
I600000
sS'total_stock_value'
p33
I585062
sS'from_poi_to_this_person'
p34
I38
sS'from_this_person_to_poi'
p35
I1
sS'restricted_stock'
p36
I585062
sS'salary'
p37
I365788
sS'total_payments'
p38
I1061827
sS'exercised_stock_options'
p39
g9
(g13
S'\x00\x00\x00\x00\x99\xca3A'
p40
tp41
Rp42
ssS'BAXTER JOHN C'
p43
(dp44
g3
g5
sg4
I1295738
sg6
I11200
sg7
I00
sg8
I-1386055
sg19
g9
(g13
S'{"\x04]}\xf8\x11@'
p45
tp46
Rp47
sg23
I1586055
sg24
g5
sg26
g5
sg27
g5
sg28
g5
sg29
g5
sg30
I2660303
sg31
g5
sg32
I1200000
sg33
I10623258
sg34
g5
sg35
g5
sg36
I3942714
sg37
I267102
sg38
I5634343
sg39
I6680544
ssS'ELLIOTT STEVEN'
p48
(dp49
g3
g5
sg4
g5
sg6
I78552
sg7
I00
sg8
I-400729
sg19
g9
(g13
S'F\x0cAyBa\x00@'
p50
tp51
Rp52
sg23
g5
sg24
S'steven.elliott@enron.com'
p53
sg26
g5
sg27
g5
sg28
g5
sg29
g5
sg30
I12961
sg31
g5
sg32
I350000
sg33
I6678735
sg34
g5
sg35
g5
sg36
I1788391
sg37
I170941
sg38
I211725
sg39
I4890344
ssS'CORDES WILLIAM R'
p54
(dp55
g3
I764
sg4
g5
sg6
g5
sg7
I00
sg8
g18
sg19
g9
(g13
S'\xad;\xf18p0\x07@'
p56
tp57
Rp58
sg23
g5
sg24
S'bill.cordes@enron.com'
p59
sg26
g5
sg27
I58
sg28
g5
sg29
I12
sg30
g5
sg31
g5
sg32
g9
(g13
S'\x00\x00\x00\x00`\xe3&A'
p60
tp61
Rp62
sg33
I1038185
sg34
I10
sg35
I0
sg36
I386335
sg37
g9
(g13
S'\x00\x00\x00\x00\xa8\x95\x0fA'
p63
tp64
Rp65
sg38
g5
sg39
I651850
ssS'HANNON KEVIN P'
p66
(dp67
g3
I1045
sg4
g5
sg6
I34039
sg7
I01
sg8
I-3117011
sg19
g9
(g13
S'aQ\x1e\x0f`\xa9\x18@'
p68
tp69
Rp70
sg23
I1617011
sg24
S'kevin.hannon@enron.com'
p71
sg26
g5
sg27
I1035
sg28
g5
sg29
I32
sg30
I11350
sg31
g5
sg32
I1500000
sg33
I6391065
sg34
I32
sg35
I21
sg36
I853064
sg37
I243293
sg38
I288682
sg39
I5538001
ssS'MORDAUNT KRISTINA M'
p72
(dp73
g3
g5
sg4
g5
sg6
I35018
sg7
I00
sg8
g18
sg19
g9
(g13
S'\xb2b\xae"\x08x\xf3?'
p74
tp75
Rp76
sg23
g5
sg24
S'kristina.mordaunt@enron.com'
p77
sg26
g5
sg27
g5
sg28
g5
sg29
g5
sg30
I1411
sg31
g5
sg32
I325000
sg33
I208510
sg34
g5
sg35
g5
sg36
I208510
sg37
I267093
sg38
I628522
sg39
g42
ssS'MEYER ROCKFORD G'
p78
(dp79
g3
I232
sg4
I1848227
sg6
g5
sg7
I00
sg8
g18
sg19
g9
(g13
S'\xad;\xf18p0\x07@'
p80
tp81
Rp82
sg23
g5
sg24
S'rockford.meyer@enron.com'
p83
sg26
g5
sg27
I22
sg28
g5
sg29
I28
sg30
g5
sg31
g5
sg32
g62
sg33
I955873
sg34
I0
sg35
I0
sg36
I462384
sg37
g65
sg38
I1848227
sg39
I493489
ssS'MCMAHON JEFFREY'
p84
(dp85
g3
I2355
sg4
g5
sg6
I137108
sg7
I00
sg8
g18
sg19
g9
(g13
S'\xdf\xd3\x86>\xf9\x12\x1c@'
p86
tp87
Rp88
sg23
I694862
sg24
S'jeffrey.mcmahon@enron.com'
p89
sg26
g5
sg27
I2228
sg28
g5
sg29
I48
sg30
I297353
sg31
g5
sg32
I2600000
sg33
I1662855
sg34
I58
sg35
I26
sg36
I558801
sg37
I370448
sg38
I4099771
sg39
I1104054
ssS'HORTON STANLEY C'
p90
(dp91
g3
I2350
sg4
I3131860
sg6
g5
sg7
I00
sg8
g18
sg19
g9
(g13
S'\xad;\xf18p0\x07@'
p92
tp93
Rp94
sg23
g5
sg24
S'stanley.horton@enron.com'
p95
sg26
g5
sg27
I1074
sg28
g5
sg29
I1073
sg30
g5
sg31
g5
sg32
g62
sg33
I7256648
sg34
I44
sg35
I15
sg36
I2046079
sg37
g65
sg38
I3131860
sg39
I5210569
ssS'PIPER GREGORY F'
p96
(dp97
g3
I1238
sg4
I1130036
sg6
I43057
sg7
I00
sg8
I-33333
sg19
g9
(g13
S'+\xb4N\xa5t<\x00@'
p98
tp99
Rp100
sg23
g5
sg24
S'greg.piper@enron.com'
p101
sg26
I-409554
sg27
I742
sg28
g5
sg29
I222
sg30
I778
sg31
g5
sg32
I400000
sg33
I880290
sg34
I61
sg35
I48
sg36
I409554
sg37
I197091
sg38
I1737629
sg39
I880290
ssS'HUMPHREY GENE E'
p102
(dp103
g3
I128
sg4
I2964506
sg6
I4994
sg7
I00
sg8
g18
sg19
g9
(g13
S'daW%\xf9\xf2\x16@'
p104
tp105
Rp106
sg23
g5
sg24
S'gene.humphrey@enron.com'
p107
sg26
g5
sg27
I119
sg28
g5
sg29
I17
sg30
g5
sg31
g5
sg32
g62
sg33
I2282768
sg34
I10
sg35
I17
sg36
g5
sg37
I130724
sg38
I3100224
sg39
I2282768
ssS'UMANOFF ADAM S'
p108
(dp109
g3
I111
sg4
g5
sg6
I53122
sg7
I00
sg8
g18
sg19
g9
(g13
S'\xd1>\xea\xfbp\xdd\x05@'
p110
tp111
Rp112
sg23
g5
sg24
S'adam.umanoff@enron.com'
p113
sg26
g5
sg27
I41
sg28
g5
sg29
I18
sg30
g5
sg31
g5
sg32
I788750
sg33
g9
(g13
S'\x00\x00\x00\x00\x80\xb50A'
p114
tp115
Rp116
sg34
I12
sg35
I0
sg36
g5
sg37
I288589
sg38
I1130461
sg39
g42
ssS'BLACHMAN JEREMY M'
p117
(dp118
g3
I2475
sg4
g5
sg6
I84208
sg7
I00
sg8
g18
sg19
g9
(g13
S'\\~\xa4T\xef[\x0b@'
p119
tp120
Rp121
sg23
I831809
sg24
S'jeremy.blachman@enron.com'
p122
sg26
g5
sg27
I2326
sg28
g5
sg29
I14
sg30
I272
sg31
g5
sg32
I850000
sg33
I954354
sg34
I25
sg35
I2
sg36
I189041
sg37
I248546
sg38
I2014835
sg39
I765313
ssS'SUNDE MARTIN'
p123
(dp124
g3
I2647
sg4
g5
sg6
g5
sg7
I00
sg8
g18
sg19
g9
(g13
S'\xf3\x82\xeel\xae\xbf\x05@'
p125
tp126
Rp127
sg23
I476451
sg24
S'marty.sunde@enron.com'
p128
sg26
g5
sg27
I2565
sg28
g5
sg29
I38
sg30
I111122
sg31
g5
sg32
I700000
sg33
I698920
sg34
I37
sg35
I13
sg36
I698920
sg37
I257486
sg38
I1545059
sg39
g42
ssS'GIBBS DANA R'
p129
(dp130
g3
I169
sg4
I504610
sg6
g5
sg7
I00
sg8
g18
sg19
g9
(g13
S'\xad;\xf18p0\x07@'
p131
tp132
Rp133
sg23
I461912
sg24
S'dana.gibbs@enron.com'
p134
sg26
g5
sg27
I23
sg28
g5
sg29
I12
sg30
g5
sg31
g5
sg32
g62
sg33
I2218275
sg34
I0
sg35
I0
sg36
g5
sg37
g65
sg38
I966522
sg39
I2218275
ssS'LOWRY CHARLES P'
p135
(dp136
g3
g5
sg4
g5
sg6
g5
sg7
I00
sg8
g18
sg19
g9
(g13
S'\xad;\xf18p0\x07@'
p137
tp138
Rp139
sg23
g5
sg24
g5
sg26
I-153686
sg27
g5
sg28
g5
sg29
g5
sg30
g5
sg31
g5
sg32
g62
sg33
I372205
sg34
g5
sg35
g5
sg36
I153686
sg37
g65
sg38
g5
sg39
I372205
ssS'COLWELL WESLEY'
p140
(dp141
g3
I1758
sg4
I27610
sg6
I16514
sg7
I01
sg8
I-144062
sg19
g9
(g13
S'\x82\x92U\xf1\xa6\xa2\x10@'
p142
tp143
Rp144
sg23
g5
sg24
S'wes.colwell@enron.com'
p145
sg26
g5
sg27
I1132
sg28
g5
sg29
I40
sg30
I101740
sg31
g5
sg32
I1200000
sg33
I698242
sg34
I240
sg35
I11
sg36
I698242
sg37
I288542
sg38
I1490344
sg39
g42
ssS'MULLER MARK S'
p146
(dp147
g3
I136
sg4
I842924
sg6
g5
sg7
I00
sg8
I-719000
sg19
g9
(g13
S'F\x9f\x91\xa3\xfc{\x11@'
p148
tp149
Rp150
sg23
I1725545
sg24
S's..muller@enron.com'
p151
sg26
g5
sg27
I114
sg28
g5
sg29
I16
sg30
I947
sg31
g5
sg32
I1100000
sg33
I1416848
sg34
I12
sg35
I0
sg36
I360528
sg37
I251654
sg38
I3202070
sg39
I1056320
ssS'JACKSON CHARLENE R'
p152
(dp153
g3
I258
sg4
g5
sg6
I10181
sg7
I00
sg8
g18
sg19
g9
(g13
S"\xf8\xbee'\\\xb9\xeb?"
p154
tp155
Rp156
sg23
g5
sg24
S'charlene.jackson@enron.com'
p157
sg26
g5
sg27
I117
sg28
g5
sg29
I56
sg30
I2435
sg31
g5
sg32
I250000
sg33
I725735
sg34
I25
sg35
I19
sg36
I540672
sg37
I288558
sg38
I551174
sg39
I185063
ssS'WESTFAHL RICHARD K'
p158
(dp159
g3
g5
sg4
g5
sg6
I51870
sg7
I00
sg8
I-10800
sg19
g9
(g13
S"l\x0f\xb9\xac\x18\x88'@"
p160
tp161
Rp162
sg23
I256191
sg24
S'dick.westfahl@enron.com'
p163
sg26
g5
sg27
g5
sg28
g5
sg29
g5
sg30
I401130
sg31
g5
sg32
g62
sg33
I384930
sg34
g5
sg35
g5
sg36
I384930
sg37
I63744
sg38
I762135
sg39
g42
ssS'WALTERS GARETH W'
p164
(dp165
g3
g5
sg4
I53625
sg6
I33785
sg7
I00
sg8
g18
sg19
g9
(g13
S'\xad;\xf18p0\x07@'
p166
tp167
Rp168
sg23
g5
sg24
g5
sg26
g5
sg27
g5
sg28
g5
sg29
g5
sg30
g5
sg31
g5
sg32
g62
sg33
I1030329
sg34
g5
sg35
g5
sg36
g5
sg37
g65
sg38
I87410
sg39
I1030329
ssS'WALLS JR ROBERT H'
p169
(dp170
g3
I671
sg4
g5
sg6
I50936
sg7
I00
sg8
g18
sg19
g9
(g13
S'\x86 \xcd\xa5\xf2\n\x03@'
p171
tp172
Rp173
sg23
I540751
sg24
S'rob.walls@enron.com'
p174
sg26
g5
sg27
I215
sg28
g5
sg29
I146
sg30
I2
sg31
g5
sg32
I850000
sg33
I5898997
sg34
I17
sg35
I0
sg36
I1552453
sg37
I357091
sg38
I1798780
sg39
I4346544
ssS'KITCHEN LOUISE'
p175
(dp176
g3
I8305
sg4
g5
sg6
I5774
sg7
I00
sg8
g18
sg19
g9
(g13
S"\xe53/'J\xd7&@"
p177
tp178
Rp179
sg23
g5
sg24
S'louise.kitchen@enron.com'
p180
sg26
g5
sg27
I3669
sg28
g5
sg29
I1728
sg30
I93925
sg31
g5
sg32
I3100000
sg33
I547143
sg34
I251
sg35
I194
sg36
I466101
sg37
I271442
sg38
I3471141
sg39
I81042
ssS'CHAN RONNIE'
p181
(dp182
g3
g5
sg4
g5
sg6
g5
sg7
I00
sg8
I-98784
sg19
g9
(g13
S'\xad;\xf18p0\x07@'
p183
tp184
Rp185
sg23
g5
sg24
g5
sg26
I-32460
sg27
g5
sg28
g5
sg29
g5
sg30
g5
sg31
I98784
sg32
g62
sg33
g116
sg34
g5
sg35
g5
sg36
I32460
sg37
g65
sg38
g5
sg39
g42
ssS'BELFER ROBERT'
p186
(dp187
g3
g5
sg4
I-102500
sg6
g5
sg7
I00
sg8
g18
sg19
g9
(g13
S'\xad;\xf18p0\x07@'
p188
tp189
Rp190
sg23
g5
sg24
g5
sg26
I44093
sg27
g5
sg28
g5
sg29
g5
sg30
g5
sg31
I3285
sg32
g62
sg33
I-44093
sg34
g5
sg35
g5
sg36
g5
sg37
g65
sg38
I102500
sg39
I3285
ssS'SHANKMAN JEFFREY A'
p191
(dp192
g3
I3221
sg4
g5
sg6
I178979
sg7
I00
sg8
g18
sg19
g9
(g13
S'\x10J\xa6\xc2gN\x1a@'
p193
tp194
Rp195
sg23
I554422
sg24
S'jeffrey.shankman@enron.com'
p196
sg26
g5
sg27
I1730
sg28
g5
sg29
I2681
sg30
I1191
sg31
g5
sg32
I2000000
sg33
I2072035
sg34
I94
sg35
I83
sg36
I630137
sg37
I304110
sg38
I3038702
sg39
I1441898
ssS'WODRASKA JOHN'
p197
(dp198
g3
g5
sg4
g5
sg6
g5
sg7
I00
sg8
g18
sg19
g9
(g13
S'\xad;\xf18p0\x07@'
p199
tp200
Rp201
sg23
g5
sg24
S'john.wodraska@enron.com'
p202
sg26
g5
sg27
g5
sg28
g5
sg29
g5
sg30
I189583
sg31
g5
sg32
g62
sg33
g116
sg34
g5
sg35
g5
sg36
g5
sg37
g65
sg38
I189583
sg39
g42
ssS'BERGSIEKER RICHARD P'
p203
(dp204
g3
I383
sg4
g5
sg6
I59175
sg7
I00
sg8
I-485813
sg19
g9
(g13
S'\xfaEL\xbd\x11I\xf5?'
p205
tp206
Rp207
sg23
I180250
sg24
S'rick.bergsieker@enron.com'
p208
sg26
g5
sg27
I233
sg28
g5
sg29
I59
sg30
I427316
sg31
g5
sg32
I250000
sg33
I659249
sg34
I4
sg35
I0
sg36
I659249
sg37
I187922
sg38
I618850
sg39
g42
ssS'URQUHART JOHN A'
p209
(dp210
g3
g5
sg4
g5
sg6
I228656
sg7
I00
sg8
I-36666
sg19
g9
(g13
S'\xad;\xf18p0\x07@'
p211
tp212
Rp213
sg23
g5
sg24
g5
sg26
g5
sg27
g5
sg28
g5
sg29
g5
sg30
g5
sg31
I36666
sg32
g62
sg33
g116
sg34
g5
sg35
g5
sg36
g5
sg37
g65
sg38
I228656
sg39
g42
ssS'BIBI PHILIPPE A'
p214
(dp215
g3
I1607
sg4
g5
sg6
I38559
sg7
I00
sg8
g18
sg19
g9
(g13
S'"{2Kr\xb9\x12@'
p216
tp217
Rp218
sg23
I369721
sg24
S'philippe.bibi@enron.com'
p219
sg26
g5
sg27
I1336
sg28
g5
sg29
I40
sg30
I425688
sg31
g5
sg32
I1000000
sg33
I1843816
sg34
I23
sg35
I8
sg36
I378082
sg37
I213625
sg38
I2047593
sg39
I1465734
ssS'RIEKER PAULA H'
p220
(dp221
g3
I1328
sg4
I214678
sg6
I33271
sg7
I01
sg8
I-100000
sg19
g9
(g13
S'\x18\xf1\xfc0\xc9x\x06@'
p222
tp223
Rp224
sg23
g5
sg24
S'paula.rieker@enron.com'
p225
sg26
g5
sg27
I1258
sg28
g5
sg29
I82
sg30
I1950
sg31
g5
sg32
I700000
sg33
I1918887
sg34
I35
sg35
I48
sg36
I283649
sg37
I249201
sg38
I1099100
sg39
I1635238
ssS'WHALEY DAVID A'
p226
(dp227
g3
g5
sg4
g5
sg6
g5
sg7
I00
sg8
g18
sg19
g9
(g13
S'\xad;\xf18p0\x07@'
p228
tp229
Rp230
sg23
g5
sg24
g5
sg26
g5
sg27
g5
sg28
g5
sg29
g5
sg30
g5
sg31
g5
sg32
g62
sg33
I98718
sg34
g5
sg35
g5
sg36
g5
sg37
g65
sg38
g5
sg39
I98718
ssS'BECK SALLY W'
p231
(dp232
g3
I7315
sg4
g5
sg6
I37172
sg7
I00
sg8
g18
sg19
g9
(g13
S'\x96[\x9c\x1b55\x08@'
p233
tp234
Rp235
sg23
g5
sg24
S'sally.beck@enron.com'
p236
sg26
g5
sg27
I2639
sg28
g5
sg29
I4343
sg30
I566
sg31
g5
sg32
I700000
sg33
I126027
sg34
I144
sg35
I386
sg36
I126027
sg37
I231330
sg38
I969068
sg39
g42
ssS'HAUG DAVID L'
p237
(dp238
g3
I573
sg4
g5
sg6
I475
sg7
I00
sg8
g18
sg19
g9
(g13
S'\xad;\xf18p0\x07@'
p239
tp240
Rp241
sg23
g5
sg24
S'david.haug@enron.com'
p242
sg26
g5
sg27
I471
sg28
g5
sg29
I19
sg30
g5
sg31
g5
sg32
g62
sg33
I2217299
sg34
I4
sg35
I7
sg36
I2217299
sg37
g65
sg38
I475
sg39
g42
ssS'ECHOLS JOHN B'
p243
(dp244
g3
g5
sg4
g5
sg6
I21530
sg7
I00
sg8
g18
sg19
g9
(g13
S'^\x1d\x8bA\x0c\x8f\xf1?'
p245
tp246
Rp247
sg23
I2234774
sg24
S'john.echols@enron.com'
p248
sg26
g5
sg27
g5
sg28
g5
sg29
g5
sg30
I53775
sg31
g5
sg32
I200000
sg33
I1008941
sg34
g5
sg35
g5
sg36
I407503
sg37
I182245
sg38
I2692324
sg39
I601438
ssS'MENDELSOHN JOHN'
p249
(dp250
g3
g5
sg4
g5
sg6
I148
sg7
I00
sg8
I-103750
sg19
g9
(g13
S'\xad;\xf18p0\x07@'
p251
tp252
Rp253
sg23
g5
sg24
g5
sg26
g5
sg27
g5
sg28
g5
sg29
g5
sg30
g5
sg31
I103750
sg32
g62
sg33
g116
sg34
g5
sg35
g5
sg36
g5
sg37
g65
sg38
I148
sg39
g42
ssS'HICKERSON GARY J'
p254
(dp255
g3
I1320
sg4
g5
sg6
I98849
sg7
I00
sg8
g18
sg19
g9
(g13
S'Z\x0fc(\xc5\r @'
p256
tp257
Rp258
sg23
I69223
sg24
S'gary.hickerson@enron.com'
p259
sg26
g5
sg27
I900
sg28
g5
sg29
I27
sg30
I1936
sg31
g5
sg32
I1700000
sg33
I441096
sg34
I40
sg35
I1
sg36
I441096
sg37
I211788
sg38
I2081796
sg39
g42
ssS'CLINE KENNETH W'
p260
(dp261
g3
g5
sg4
g5
sg6
g5
sg7
I00
sg8
g18
sg19
g9
(g13
S'\xad;\xf18p0\x07@'
p262
tp263
Rp264
sg23
g5
sg24
g5
sg26
I-472568
sg27
g5
sg28
g5
sg29
g5
sg30
g5
sg31
g5
sg32
g62
sg33
I189518
sg34
g5
sg35
g5
sg36
I662086
sg37
g65
sg38
g5
sg39
g42
ssS'LEWIS RICHARD'
p265
(dp266
g3
I952
sg4
g5
sg6
g5
sg7
I00
sg8
g18
sg19
g9
(g13
S'\xad;\xf18p0\x07@'
p267
tp268
Rp269
sg23
g5
sg24
S'richard.lewis@enron.com'
p270
sg26
g5
sg27
I739
sg28
g5
sg29
I26
sg30
g5
sg31
g5
sg32
g62
sg33
I850477
sg34
I10
sg35
I0
sg36
g5
sg37
g65
sg38
g5
sg39
I850477
ssS'HAYES ROBERT E'
p271
(dp272
g3
I504
sg4
I7961
sg6
g5
sg7
I00
sg8
g18
sg19
g9
(g13
S'\xad;\xf18p0\x07@'
p273
tp274
Rp275
sg23
g5
sg24
S'robert.hayes@enron.com'
p276
sg26
g5
sg27
I50
sg28
g5
sg29
I12
sg30
g5
sg31
g5
sg32
g62
sg33
I151418
sg34
I16
sg35
I0
sg36
I151418
sg37
g65
sg38
I7961
sg39
g42
ssS'MCCARTY DANNY J'
p277
(dp278
g3
I1433
sg4
g5
sg6
g5
sg7
I00
sg8
g18
sg19
g9
(g13
S'\xad;\xf18p0\x07@'
p279
tp280
Rp281
sg23
g5
sg24
S'danny.mccarty@enron.com'
p282
sg26
g5
sg27
I508
sg28
g5
sg29
I215
sg30
g5
sg31
g5
sg32
g62
sg33
I758931
sg34
I25
sg35
I2
sg36
I94556
sg37
g65
sg38
g5
sg39
I664375
ssS'KOPPER MICHAEL J'
p283
(dp284
g3
g5
sg4
g5
sg6
I118134
sg7
I01
sg8
g18
sg19
g9
(g13
S'<\x9f\x00\x0fW\x88\x0c@'
p285
tp286
Rp287
sg23
I602671
sg24
S'michael.kopper@enron.com'
p288
sg26
g5
sg27
g5
sg28
g5
sg29
g5
sg30
I907502
sg31
g5
sg32
I800000
sg33
I985032
sg34
g5
sg35
g5
sg36
I985032
sg37
I224305
sg38
I2652612
sg39
g42
ssS'LEFF DANIEL P'
p289
(dp290
g3
I2822
sg4
g5
sg6
g5
sg7
I00
sg8
g18
sg19
g9
(g13
S'6#\x86Jc9\r@'
p291
tp292
Rp293
sg23
I1387399
sg24
S'dan.leff@enron.com'
p294
sg26
g5
sg27
I2672
sg28
g5
sg29
I63
sg30
I3083
sg31
g5
sg32
I1000000
sg33
I360528
sg34
I67
sg35
I14
sg36
I360528
sg37
I273746
sg38
I2664228
sg39
g42
ssS'LAVORATO JOHN J'
p295
(dp296
g3
I7259
sg4
g5
sg6
I49537
sg7
I00
sg8
g18
sg19
g9
(g13
S'\xaf\xa0\x0c|+\x947@'
p297
tp298
Rp299
sg23
I2035380
sg24
S'john.lavorato@enron.com'
p300
sg26
g5
sg27
I3962
sg28
g5
sg29
I2585
sg30
I1552
sg31
g5
sg32
I8000000
sg33
I5167144
sg34
I528
sg35
I411
sg36
I1008149
sg37
I339288
sg38
I10425757
sg39
I4158995
ssS'BERBERIAN DAVID'
p301
(dp302
g3
g5
sg4
g5
sg6
I11892
sg7
I00
sg8
g18
sg19
g9
(g13
S'\xe4c\xfb\x89\x00\xb4\x0b@'
p303
tp304
Rp305
sg23
g5
sg24
S'david.berberian@enron.com'
p306
sg26
g5
sg27
g5
sg28
g5
sg29
g5
sg30
g5
sg31
g5
sg32
g62
sg33
I2493616
sg34
g5
sg35
g5
sg36
I869220
sg37
I216582
sg38
I228474
sg39
I1624396
ssS'DETMERING TIMOTHY J'
p307
(dp308
g3
g5
sg4
I875307
sg6
I52255
sg7
I00
sg8
I-775241
sg19
g9
(g13
S'\x8c\x92\xa3\xb7\xea&\x00@'
p309
tp310
Rp311
sg23
I415657
sg24
S'timothy.detmering@enron.com'
p312
sg26
I-315068
sg27
g5
sg28
g5
sg29
g5
sg30
I1105
sg31
g5
sg32
I425000
sg33
I2027865
sg34
g5
sg35
g5
sg36
I315068
sg37
I210500
sg38
I1204583
sg39
I2027865
ssS'WAKEHAM JOHN'
p313
(dp314
g3
g5
sg4
g5
sg6
I103773
sg7
I00
sg8
g18
sg19
g9
(g13
S'\xad;\xf18p0\x07@'
p315
tp316
Rp317
sg23
g5
sg24
g5
sg26
g5
sg27
g5
sg28
g5
sg29
g5
sg30
g5
sg31
I109298
sg32
g62
sg33
g116
sg34
g5
sg35
g5
sg36
g5
sg37
g65
sg38
I213071
sg39
g42
ssS'POWERS WILLIAM'
p318
(dp319
g3
I653
sg4
g5
sg6
g5
sg7
I00
sg8
I-17500
sg19
g9
(g13
S'\xad;\xf18p0\x07@'
p320
tp321
Rp322
sg23
g5
sg24
S'ken.powers@enron.com'
p323
sg26
g5
sg27
I12
sg28
g5
sg29
I26
sg30
g5
sg31
I17500
sg32
g62
sg33
g116
sg34
I0
sg35
I0
sg36
g5
sg37
g65
sg38
g5
sg39
g42
ssS'GOLD JOSEPH'
p324
(dp325
g3
g5
sg4
g5
sg6
g5
sg7
I00
sg8
g18
sg19
g9
(g13
S'\xc7*b\x0c\xd9\xfc\x05@'
p326
tp327
Rp328
sg23
I304805
sg24
S'joe.gold@enron.com'
p329
sg26
g5
sg27
g5
sg28
g5
sg29
g5
sg30
I819288
sg31
g5
sg32
I750000
sg33
I877611
sg34
g5
sg35
g5
sg36
I441096
sg37
I272880
sg38
I2146973
sg39
I436515
ssS'BANNANTINE JAMES M'
p330
(dp331
g3
I566
sg4
g5
sg6
I56301
sg7
I00
sg8
I-5104
sg19
g9
(g13
S'\x9c\x01\xa1\xe4N\x91\x98@'
p332
tp333
Rp334
sg23
g5
sg24
S'james.bannantine@enron.com'
p335
sg26
I-560222
sg27
I465
sg28
g5
sg29
I29
sg30
I864523
sg31
g5
sg32
g62
sg33
I5243487
sg34
I39
sg35
I0
sg36
I1757552
sg37
I477
sg38
I916197
sg39
I4046157
ssS'DUNCAN JOHN H'
p336
(dp337
g3
g5
sg4
g5
sg6
g5
sg7
I00
sg8
I-25000
sg19
g9
(g13
S'\xad;\xf18p0\x07@'
p338
tp339
Rp340
sg23
g5
sg24
g5
sg26
g5
sg27
g5
sg28
g5
sg29
g5
sg30
g5
sg31
I102492
sg32
g62
sg33
I371750
sg34
g5
sg35
g5
sg36
g5
sg37
g65
sg38
I77492
sg39
I371750
ssS'SHAPIRO RICHARD S'
p341
(dp342
g3
I15149
sg4
g5
sg6
I137767
sg7
I00
sg8
g18
sg19
g9
(g13
S'0d"\x17MS\x03@'
p343
tp344
Rp345
sg23
g5
sg24
S'richard.shapiro@enron.com'
p346
sg26
g5
sg27
I4527
sg28
g5
sg29
I1215
sg30
I705
sg31
g5
sg32
I650000
sg33
I987001
sg34
I74
sg35
I65
sg36
I379164
sg37
I269076
sg38
I1057548
sg39
I607837
ssS'SHERRIFF JOHN R'
p347
(dp348
g3
I3187
sg4
g5
sg6
g5
sg7
I00
sg8
g18
sg19
g9
(g13
S"\x83'\xade\x83\xfc\x0b@"
p349
tp350
Rp351
sg23
I554422
sg24
S'john.sherriff@enron.com'
p352
sg26
g5
sg27
I2103
sg28
g5
sg29
I92
sg30
I1852186
sg31
g5
sg32
I1500000
sg33
I3128982
sg34
I28
sg35
I23
sg36
I1293424
sg37
I428780
sg38
I4335388
sg39
I1835558
ssS'SHELBY REX'
p353
(dp354
g3
I225
sg4
g5
sg6
I22884
sg7
I01
sg8
I-4167
sg19
g9
(g13
S'\x1f\xa721\xfe5\xee?'
p355
tp356
Rp357
sg23
g5
sg24
S'rex.shelby@enron.com'
p358
sg26
g5
sg27
I91
sg28
g5
sg29
I39
sg30
I1573324
sg31
g5
sg32
I200000
sg33
I2493616
sg34
I13
sg35
I14
sg36
I869220
sg37
I211844
sg38
I2003885
sg39
I1624396
ssS'LEMAISTRE CHARLES'
p359
(dp360
g3
g5
sg4
g5
sg6
g5
sg7
I00
sg8
I-25000
sg19
g9
(g13
S'\xad;\xf18p0\x07@'
p361
tp362
Rp363
sg23
g5
sg24
g5
sg26
g5
sg27
g5
sg28
g5
sg29
g5
sg30
g5
sg31
I112492
sg32
g62
sg33
I412878
sg34
g5
sg35
g5
sg36
g5
sg37
g65
sg38
I87492
sg39
I412878
ssS'DEFFNER JOSEPH M'
p364
(dp365
g3
I714
sg4
g5
sg6
I41626
sg7
I00
sg8
g18
sg19
g9
(g13
S'\xfey\xe9\xfe\x8bI\x07@'
p366
tp367
Rp368
sg23
I335349
sg24
S'joseph.deffner@enron.com'
p369
sg26
g5
sg27
I552
sg28
g5
sg29
I74
sg30
I25553
sg31
g5
sg32
I600000
sg33
I159211
sg34
I115
sg35
I4
sg36
I141833
sg37
I206121
sg38
I1208649
sg39
I17378
ssS'KISHKILL JOSEPH G'
p370
(dp371
g3
g5
sg4
g5
sg6
I116335
sg7
I00
sg8
I-51042
sg19
g9
(g13
S'\xffv\x15\xcd\x8f7\x11@'
p372
tp373
Rp374
sg23
g5
sg24
S'joe.kishkill@enron.com'
p375
sg26
g5
sg27
g5
sg28
g5
sg29
g5
sg30
I465357
sg31
g5
sg32
g62
sg33
I1034346
sg34
g5
sg35
g5
sg36
I1034346
sg37
I174246
sg38
I704896
sg39
g42
ssS'WHALLEY LAWRENCE G'
p376
(dp377
g3
I6019
sg4
g5
sg6
I57838
sg7
I00
sg8
g18
sg19
g9
(g13
S'E\r\x9d\xbb;\x83\x17@'
p378
tp379
Rp380
sg23
I808346
sg24
S'greg.whalley@enron.com'
p381
sg26
g5
sg27
I3920
sg28
g5
sg29
I556
sg30
I301026
sg31
g5
sg32
I3000000
sg33
I6079137
sg34
I186
sg35
I24
sg36
I2796177
sg37
I510364
sg38
I4677574
sg39
I3282960
ssS'MCCONNELL MICHAEL S'
p382
(dp383
g3
I3329
sg4
g5
sg6
I81364
sg7
I00
sg8
g18
sg19
g9
(g13
S'\x1e\x95\xec\x8bi\x1b\x08@'
p384
tp385
Rp386
sg23
I554422
sg24
S'mike.mcconnell@enron.com'
p387
sg26
g5
sg27
I2189
sg28
g5
sg29
I2742
sg30
I540
sg31
g5
sg32
I1100000
sg33
I3101279
sg34
I92
sg35
I194
sg36
I1478269
sg37
I365038
sg38
I2101364
sg39
I1623010
ssS'PIRO JIM'
p388
(dp389
g3
I58
sg4
g5
sg6
g5
sg7
I00
sg8
g18
sg19
g9
(g13
S'\xad;\xf18p0\x07@'
p390
tp391
Rp392
sg23
g5
sg24
S'jim.piro@enron.com'
p393
sg26
g5
sg27
I3
sg28
g5
sg29
I16
sg30
g5
sg31
g5
sg32
g62
sg33
I47304
sg34
I0
sg35
I1
sg36
I47304
sg37
g65
sg38
g5
sg39
g42
ssS'DELAINEY DAVID W'
p394
(dp395
g3
I3093
sg4
g5
sg6
I86174
sg7
I01
sg8
g18
sg19
g9
(g13
S'CP\x15:Wn @'
p396
tp397
Rp398
sg23
I1294981
sg24
S'david.delainey@enron.com'
p399
sg26
g5
sg27
I2097
sg28
g5
sg29
I3069
sg30
I1661
sg31
g5
sg32
I3000000
sg33
I3614261
sg34
I66
sg35
I609
sg36
I1323148
sg37
I365163
sg38
I4747979
sg39
I2291113
ssS'SULLIVAN-SHAKLOVITZ COLLEEN'
p400
(dp401
g3
g5
sg4
I181993
sg6
g5
sg7
I00
sg8
g18
sg19
g9
(g13
S'l\xcbG\x17\x97\xa8\xe3?'
p402
tp403
Rp404
sg23
I554422
sg24
g5
sg26
g5
sg27
g5
sg28
g5
sg29
g5
sg30
I162
sg31
g5
sg32
I100000
sg33
I1362375
sg34
g5
sg35
g5
sg36
g5
sg37
I162779
sg38
I999356
sg39
I1362375
ssS'WROBEL BRUCE'
p405
(dp406
g3
g5
sg4
g5
sg6
g5
sg7
I00
sg8
g18
sg19
g9
(g13
S'\xad;\xf18p0\x07@'
p407
tp408
Rp409
sg23
g5
sg24
g5
sg26
g5
sg27
g5
sg28
g5
sg29
g5
sg30
g5
sg31
g5
sg32
g62
sg33
I139130
sg34
g5
sg35
g5
sg36
g5
sg37
g65
sg38
g5
sg39
I139130
ssS'LINDHOLM TOD A'
p410
(dp411
g3
g5
sg4
I204075
sg6
I57727
sg7
I00
sg8
g18
sg19
g9
(g13
S'f<&\x93\xf4\x10\xeb?'
p412
tp413
Rp414
sg23
I175000
sg24
S'tod.lindholm@enron.com'
p415
sg26
g5
sg27
g5
sg28
g5
sg29
g5
sg30
I2630
sg31
g5
sg32
I200000
sg33
I3064208
sg34
g5
sg35
g5
sg36
I514847
sg37
I236457
sg38
I875889
sg39
I2549361
ssS'MEYER JEROME J'
p416
(dp417
g3
g5
sg4
g5
sg6
I2151
sg7
I00
sg8
I-38346
sg19
g9
(g13
S'\xad;\xf18p0\x07@'
p418
tp419
Rp420
sg23
g5
sg24
g5
sg26
g5
sg27
g5
sg28
g5
sg29
g5
sg30
g5
sg31
I38346
sg32
g62
sg33
g116
sg34
g5
sg35
g5
sg36
g5
sg37
g65
sg38
I2151
sg39
g42
ssS'LAY KENNETH L'
p421
(dp422
g3
I4273
sg4
I202911
sg6
I99832
sg7
I01
sg8
I-300000
sg19
g9
(g13
S'\xcd\x9b\xf5\xc6\x90\x1c\x1a@'
p423
tp424
Rp425
sg23
I3600000
sg24
S'kenneth.lay@enron.com'
p426
sg26
g5
sg27
I2411
sg28
I81525000
sg29
I36
sg30
I10359729
sg31
g5
sg32
I7000000
sg33
I49110078
sg34
I123
sg35
I16
sg36
I14761694
sg37
I1072321
sg38
I103559793
sg39
I34348384
ssS'BUTTS ROBERT H'
p427
(dp428
g3
g5
sg4
g5
sg6
I9410
sg7
I00
sg8
I-75000
sg19
g9
(g13
S'\xa4\xa0\xf5\x12r\xf1\x06@'
p429
tp430
Rp431
sg23
I175000
sg24
S'bob.butts@enron.com'
p432
sg26
g5
sg27
g5
sg28
g5
sg29
g5
sg30
I150656
sg31
g5
sg32
I750000
sg33
I417619
sg34
g5
sg35
g5
sg36
I417619
sg37
I261516
sg38
I1271582
sg39
g42
ssS'OLSON CINDY K'
p433
(dp434
g3
I1184
sg4
I77716
sg6
I63791
sg7
I00
sg8
g18
sg19
g9
(g13
S'\xda\x1d\xd7\x1e\x96;\x02@'
p435
tp436
Rp437
sg23
I100000
sg24
S'cindy.olson@enron.com'
p438
sg26
g5
sg27
I856
sg28
g5
sg29
I52
sg30
I972
sg31
g5
sg32
I750000
sg33
I2606763
sg34
I20
sg35
I15
sg36
I969729
sg37
I329078
sg38
I1321557
sg39
I1637034
ssS'MCDONALD REBECCA'
p439
(dp440
g3
I894
sg4
g5
sg6
g5
sg7
I00
sg8
g18
sg19
g9
(g13
S'\xad;\xf18p0\x07@'
p441
tp442
Rp443
sg23
g5
sg24
S'rebecca.mcdonald@enron.com'
p444
sg26
g5
sg27
I720
sg28
g5
sg29
I13
sg30
g5
sg31
g5
sg32
g62
sg33
I1691366
sg34
I54
sg35
I1
sg36
I934065
sg37
g65
sg38
g5
sg39
I757301
ssS'CUMBERLAND MICHAEL S'
p445
(dp446
g3
g5
sg4
g5
sg6
I22344
sg7
I00
sg8
g18
sg19
g9
(g13
S'\x8cr\x9c4\x9b\x1f\xfc?'
p447
tp448
Rp449
sg23
I275000
sg24
g5
sg26
g5
sg27
g5
sg28
g5
sg29
g5
sg30
I713
sg31
g5
sg32
I325000
sg33
I207940
sg34
g5
sg35
g5
sg36
I207940
sg37
I184899
sg38
I807956
sg39
g42
ssS'GAHN ROBERT S'
p450
(dp451
g3
g5
sg4
I73122
sg6
I50080
sg7
I00
sg8
I-1042
sg19
g9
(g13
S'\x01\xf1\xfd\x00c>\x05@'
p452
tp453
Rp454
sg23
g5
sg24
g5
sg26
g5
sg27
g5
sg28
g5
sg29
g5
sg30
I76547
sg31
g5
sg32
I509870
sg33
I318607
sg34
g5
sg35
g5
sg36
I235370
sg37
I192008
sg38
I900585
sg39
I83237
ssS'MCCLELLAN GEORGE'
p455
(dp456
g3
I1744
sg4
g5
sg6
I228763
sg7
I00
sg8
I-125000
sg19
g9
(g13
S'\x13q:r`U\x0b@'
p457
tp458
Rp459
sg23
g5
sg24
S'george.mcclellan@enron.com'
p460
sg26
g5
sg27
I1469
sg28
g5
sg29
I49
sg30
I51587
sg31
g5
sg32
I900000
sg33
I947861
sg34
I52
sg35
I0
sg36
I441096
sg37
I263413
sg38
I1318763
sg39
I506765
ssS'HERMANN ROBERT J'
p461
(dp462
g3
g5
sg4
g5
sg6
I48357
sg7
I00
sg8
I-280000
sg19
g9
(g13
S'\xe5\x1f\xbd\xb7\xf1Q\x05@'
p463
tp464
Rp465
sg23
I150000
sg24
S'robert.hermann@enron.com'
p466
sg26
g5
sg27
g5
sg28
g5
sg29
g5
sg30
I416441
sg31
g5
sg32
I700000
sg33
I668132
sg34
g5
sg35
g5
sg36
I480632
sg37
I262663
sg38
I1297461
sg39
I187500
ssS'SCRIMSHAW MATTHEW'
p467
(dp468
g3
g5
sg4
g5
sg6
g5
sg7
I00
sg8
g18
sg19
g9
(g13
S'\xad;\xf18p0\x07@'
p469
tp470
Rp471
sg23
g5
sg24
S'matthew.scrimshaw@enron.com'
p472
sg26
g5
sg27
g5
sg28
g5
sg29
g5
sg30
g5
sg31
g5
sg32
g62
sg33
I759557
sg34
g5
sg35
g5
sg36
g5
sg37
g65
sg38
g5
sg39
I759557
ssS'GATHMANN WILLIAM D'
p473
(dp474
g3
g5
sg4
g5
sg6
g5
sg7
I00
sg8
g18
sg19
g9
(g13
S'\xad;\xf18p0\x07@'
p475
tp476
Rp477
sg23
g5
sg24
g5
sg26
I-72419
sg27
g5
sg28
g5
sg29
g5
sg30
g5
sg31
g5
sg32
g62
sg33
I1945360
sg34
g5
sg35
g5
sg36
I264013
sg37
g65
sg38
g5
sg39
I1753766
ssS'HAEDICKE MARK E'
p478
(dp479
g3
I4009
sg4
I2157527
sg6
I76169
sg7
I00
sg8
I-934484
sg19
g9
(g13
S'\xfdc\x1f\xe18\x97\x08@'
p480
tp481
Rp482
sg23
I983346
sg24
S'mark.haedicke@enron.com'
p483
sg26
I-329825
sg27
I1847
sg28
g5
sg29
I1941
sg30
I52382
sg31
g5
sg32
I1150000
sg33
I803094
sg34
I180
sg35
I61
sg36
I524169
sg37
I374125
sg38
I3859065
sg39
I608750
ssS'BOWEN JR RAYMOND M'
p484
(dp485
g3
I1858
sg4
g5
sg6
I65907
sg7
I01
sg8
I-833
sg19
g9
(g13
S'}=\xb5O\xefa\x13@'
p486
tp487
Rp488
sg23
I974293
sg24
S'raymond.bowen@enron.com'
p489
sg26
g5
sg27
I1593
sg28
g5
sg29
I27
sg30
I1621
sg31
g5
sg32
I1350000
sg33
I252055
sg34
I140
sg35
I15
sg36
I252055
sg37
I278601
sg38
I2669589
sg39
g42
ssS'GILLIS JOHN'
p490
(dp491
g3
g5
sg4
g5
sg6
g5
sg7
I00
sg8
g18
sg19
g9
(g13
S'\xad;\xf18p0\x07@'
p492
tp493
Rp494
sg23
g5
sg24
g5
sg26
g5
sg27
g5
sg28
g5
sg29
g5
sg30
g5
sg31
g5
sg32
g62
sg33
I85641
sg34
g5
sg35
g5
sg36
I75838
sg37
g65
sg38
g5
sg39
I9803
ssS'FITZGERALD JAY L'
p495
(dp496
g3
I936
sg4
g5
sg6
I23870
sg7
I00
sg8
g18
sg19
g9
(g13
S'\x9c\xe6ALW\x1e\xfc?'
p497
tp498
Rp499
sg23
I556416
sg24
S'jay.fitzgerald@enron.com'
p500
sg26
g5
sg27
I723
sg28
g5
sg29
I16
sg30
I285414
sg31
g5
sg32
I350000
sg33
I1621236
sg34
I1
sg35
I8
sg36
I956775
sg37
I199157
sg38
I1414857
sg39
I664461
ssS'MORAN MICHAEL P'
p501
(dp502
g3
I672
sg4
g5
sg6
g5
sg7
I00
sg8
g18
sg19
g9
(g13
S'\xad;\xf18p0\x07@'
p503
tp504
Rp505
sg23
g5
sg24
S'michael.moran@enron.com'
p506
sg26
g5
sg27
I127
sg28
g5
sg29
I19
sg30
g5
sg31
g5
sg32
g62
sg33
I221141
sg34
I0
sg35
I0
sg36
I161602
sg37
g65
sg38
g5
sg39
I59539
ssS'REDMOND BRIAN L'
p507
(dp508
g3
I1671
sg4
g5
sg6
I14689
sg7
I00
sg8
g18
sg19
g9
(g13
S'\xdfW\x9dp\x9b\xfa\x1e@'
p509
tp510
Rp511
sg23
g5
sg24
S'brian.redmond@enron.com'
p512
sg26
g5
sg27
I1063
sg28
g5
sg29
I221
sg30
g5
sg31
g5
sg32
g62
sg33
I7890324
sg34
I204
sg35
I49
sg36
I381285
sg37
I96840
sg38
I111529
sg39
I7509039
ssS'BAZELIDES PHILIP J'
p513
(dp514
g3
g5
sg4
I684694
sg6
g5
sg7
I00
sg8
g18
sg19
g9
(g13
S'\xf6\xce\x04\xb1j\x8f"@'
p515
tp516
Rp517
sg23
I93750
sg24
g5
sg26
g5
sg27
g5
sg28
g5
sg29
g5
sg30
I874
sg31
g5
sg32
g62
sg33
I1599641
sg34
g5
sg35
g5
sg36
g5
sg37
I80818
sg38
I860136
sg39
I1599641
ssS'BELDEN TIMOTHY N'
p518
(dp519
g3
I7991
sg4
I2144013
sg6
I17355
sg7
I01
sg8
I-2334434
sg19
g9
(g13
S'\x02\xc1^\xe8f\x888@'
p520
tp521
Rp522
sg23
g5
sg24
S'tim.belden@enron.com'
p523
sg26
g5
sg27
I5521
sg28
g5
sg29
I484
sg30
I210698
sg31
g5
sg32
I5249999
sg33
I1110705
sg34
I228
sg35
I108
sg36
I157569
sg37
I213999
sg38
I5501630
sg39
I953136
ssS'DURAN WILLIAM D'
p524
(dp525
g3
I904
sg4
g5
sg6
I25785
sg7
I00
sg8
g18
sg19
g9
(g13
S'\xa4?Z7Cz\x0c@'
p526
tp527
Rp528
sg23
I1105218
sg24
S'w.duran@enron.com'
p529
sg26
g5
sg27
I599
sg28
g5
sg29
I12
sg30
I1568
sg31
g5
sg32
I750000
sg33
I1640910
sg34
I106
sg35
I3
sg36
I189041
sg37
I210692
sg38
I2093263
sg39
I1451869
ssS'THORN TERENCE H'
p530
(dp531
g3
I266
sg4
I16586
sg6
I46145
sg7
I00
sg8
g18
sg19
g9
(g13
S'\xab6\xf1\x8b\x05\x04\x0b@'
p532
tp533
Rp534
sg23
I200000
sg24
S'terence.thorn@enron.com'
p535
sg26
g5
sg27
I73
sg28
g5
sg29
I41
sg30
I426629
sg31
g5
sg32
g62
sg33
I4817796
sg34
I0
sg35
I0
sg36
I365320
sg37
I222093
sg38
I911453
sg39
I4452476
ssS'FASTOW ANDREW S'
p536
(dp537
g3
g5
sg4
g5
sg6
I55921
sg7
I01
sg8
I-1386055
sg19
g9
(g13
S'\x8d\xb4EJS\x99\x07@'
p538
tp539
Rp540
sg23
I1736055
sg24
S'andrew.fastow@enron.com'
p541
sg26
g5
sg27
g5
sg28
g5
sg29
g5
sg30
I277464
sg31
g5
sg32
I1300000
sg33
I1794412
sg34
g5
sg35
g5
sg36
I1794412
sg37
I440698
sg38
I2424083
sg39
g42
ssS'FOY JOE'
p542
(dp543
g3
I57
sg4
I181755
sg6
g5
sg7
I00
sg8
g18
sg19
g9
(g13
S'\xad;\xf18p0\x07@'
p544
tp545
Rp546
sg23
g5
sg24
S'tracy.foy@enron.com'
p547
sg26
g5
sg27
I2
sg28
g5
sg29
I13
sg30
g5
sg31
g5
sg32
g62
sg33
I343434
sg34
I0
sg35
I0
sg36
g5
sg37
g65
sg38
I181755
sg39
I343434
ssS'CALGER CHRISTOPHER F'
p548
(dp549
g3
I2598
sg4
g5
sg6
I35818
sg7
I01
sg8
I-262500
sg19
g9
(g13
S'[\x1c\xb9\xfa"\xd1\x14@'
p550
tp551
Rp552
sg23
I375304
sg24
S'christopher.calger@enron.com'
p553
sg26
g5
sg27
I2188
sg28
g5
sg29
I144
sg30
I486
sg31
g5
sg32
I1250000
sg33
I126027
sg34
I199
sg35
I25
sg36
I126027
sg37
I240189
sg38
I1639297
sg39
g42
ssS'RICE KENNETH D'
p554
(dp555
g3
I905
sg4
g5
sg6
I46950
sg7
I01
sg8
I-3504386
sg19
g9
(g13
S'\x84\x89\xe8)7\xa4\x10@'
p556
tp557
Rp558
sg23
I1617011
sg24
S'ken.rice@enron.com'
p559
sg26
g5
sg27
I864
sg28
g5
sg29
I18
sg30
I174839
sg31
g5
sg32
I1750000
sg33
I22542539
sg34
I42
sg35
I4
sg36
I2748364
sg37
I420636
sg38
I505050
sg39
I19794175
ssS'KAMINSKI WINCENTY J'
p560
(dp561
g3
I4607
sg4
g5
sg6
I83585
sg7
I00
sg8
g18
sg19
g9
(g13
S'\x05U\xcc~\xa1C\xf7?'
p562
tp563
Rp564
sg23
I323466
sg24
S'vince.kaminski@enron.com'
p565
sg26
g5
sg27
I583
sg28
g5
sg29
I14368
sg30
I4669
sg31
g5
sg32
I400000
sg33
I976037
sg34
I41
sg35
I171
sg36
I126027
sg37
I275101
sg38
I1086821
sg39
I850010
ssS'LOCKHART EUGENE E'
p566
(dp567
g3
g5
sg4
g5
sg6
g5
sg7
I00
sg8
g18
sg19
g9
(g13
S'\xad;\xf18p0\x07@'
p568
tp569
Rp570
sg23
g5
sg24
g5
sg26
g5
sg27
g5
sg28
g5
sg29
g5
sg30
g5
sg31
g5
sg32
g62
sg33
g116
sg34
g5
sg35
g5
sg36
g5
sg37
g65
sg38
g5
sg39
g42
ssS'COX DAVID'
p571
(dp572
g3
I102
sg4
g5
sg6
I27861
sg7
I00
sg8
I-41250
sg19
g9
(g13
S'<\xf9$\x91\r]\x04@'
p573
tp574
Rp575
sg23
g5
sg24
S'chip.cox@enron.com'
p576
sg26
g5
sg27
I71
sg28
g5
sg29
I33
sg30
I494
sg31
g5
sg32
I800000
sg33
I495633
sg34
I0
sg35
I4
sg36
I378082
sg37
I314288
sg38
I1101393
sg39
I117551
ssS'OVERDYKE JR JERE C'
p577
(dp578
g3
g5
sg4
g5
sg6
I18834
sg7
I00
sg8
g18
sg19
g9
(g13
S'\xbf.s\xff;\x99\x1f@'
p579
tp580
Rp581
sg23
I135836
sg24
S'jere.overdyke@enron.com'
p582
sg26
g5
sg27
g5
sg28
g5
sg29
g5
sg30
I176
sg31
g5
sg32
g62
sg33
I7307594
sg34
g5
sg35
g5
sg36
I2041016
sg37
I94941
sg38
I249787
sg39
I5266578
ssS'PEREIRA PAULO V. FERRAZ'
p583
(dp584
g3
g5
sg4
g5
sg6
I27942
sg7
I00
sg8
I-101250
sg19
g9
(g13
S'\xad;\xf18p0\x07@'
p585
tp586
Rp587
sg23
g5
sg24
g5
sg26
g5
sg27
g5
sg28
g5
sg29
g5
sg30
g5
sg31
I101250
sg32
g62
sg33
g116
sg34
g5
sg35
g5
sg36
g5
sg37
g65
sg38
I27942
sg39
g42
ssS'STABLER FRANK'
p588
(dp589
g3
g5
sg4
g5
sg6
I16514
sg7
I00
sg8
g18
sg19
g9
(g13
S'Q\xd3)\xd5\x89\xb3\x00@'
p590
tp591
Rp592
sg23
g5
sg24
S'frank.stabler@enron.com'
p593
sg26
g5
sg27
g5
sg28
g5
sg29
g5
sg30
I356071
sg31
g5
sg32
I500000
sg33
I511734
sg34
g5
sg35
g5
sg36
I511734
sg37
I239502
sg38
I1112087
sg39
g42
ssS'SKILLING JEFFREY K'
p594
(dp595
g3
I3627
sg4
g5
sg6
I29336
sg7
I01
sg8
g18
sg19
g9
(g13
S'\x7f\xbd\xa3\x1eG(\x14@'
p596
tp597
Rp598
sg23
I1920000
sg24
S'jeff.skilling@enron.com'
p599
sg26
g5
sg27
I2042
sg28
g5
sg29
I108
sg30
I22122
sg31
g5
sg32
I5600000
sg33
I26093672
sg34
I88
sg35
I30
sg36
I6843672
sg37
I1111258
sg38
I8682716
sg39
I19250000
ssS'BLAKE JR. NORMAN P'
p600
(dp601
g3
g5
sg4
g5
sg6
I1279
sg7
I00
sg8
I-113784
sg19
g9
(g13
S'\xad;\xf18p0\x07@'
p602
tp603
Rp604
sg23
g5
sg24
g5
sg26
g5
sg27
g5
sg28
g5
sg29
g5
sg30
g5
sg31
I113784
sg32
g62
sg33
g116
sg34
g5
sg35
g5
sg36
g5
sg37
g65
sg38
I1279
sg39
g42
ssS'SHERRICK JEFFREY B'
p605
(dp606
g3
I613
sg4
g5
sg6
g5
sg7
I00
sg8
g18
sg19
g9
(g13
S'\xad;\xf18p0\x07@'
p607
tp608
Rp609
sg23
g5
sg24
S'jeffrey.sherrick@enron.com'
p610
sg26
g5
sg27
I583
sg28
g5
sg29
I25
sg30
g5
sg31
g5
sg32
g62
sg33
I1832468
sg34
I39
sg35
I18
sg36
I405999
sg37
g65
sg38
g5
sg39
I1426469
ssS'PRENTICE JAMES'
p611
(dp612
g3
g5
sg4
I564348
sg6
g5
sg7
I00
sg8
g18
sg19
g9
(g13
S'\xad;\xf18p0\x07@'
p613
tp614
Rp615
sg23
g5
sg24
S'james.prentice@enron.com'
p616
sg26
g5
sg27
g5
sg28
g5
sg29
g5
sg30
g5
sg31
g5
sg32
g62
sg33
I1095040
sg34
g5
sg35
g5
sg36
I208809
sg37
g65
sg38
I564348
sg39
I886231
ssS'GRAY RODNEY'
p617
(dp618
g3
g5
sg4
I93585
sg6
g5
sg7
I00
sg8
g18
sg19
g9
(g13
S'\x16\xaa3_<X\\@'
p619
tp620
Rp621
sg23
I365625
sg24
g5
sg26
g5
sg27
g5
sg28
g5
sg29
g5
sg30
I680833
sg31
g5
sg32
g62
sg33
g116
sg34
g5
sg35
g5
sg36
g5
sg37
I6615
sg38
I1146658
sg39
g42
ssS'PICKERING MARK R'
p622
(dp623
g3
I898
sg4
g5
sg6
I31653
sg7
I00
sg8
g18
sg19
g9
(g13
S']5t\xc1\xb2O\xdd?'
p624
tp625
Rp626
sg23
g5
sg24
S'mark.pickering@enron.com'
p627
sg26
g5
sg27
I728
sg28
I400000
sg29
I67
sg30
g5
sg31
g5
sg32
I300000
sg33
I28798
sg34
I7
sg35
I0
sg36
g5
sg37
I655037
sg38
I1386690
sg39
I28798
ssS'NOLES JAMES L'
p628
(dp629
g3
g5
sg4
I774401
sg6
g5
sg7
I00
sg8
g18
sg19
g9
(g13
S'\xad;\xf18p0\x07@'
p630
tp631
Rp632
sg23
g5
sg24
g5
sg26
I-94556
sg27
g5
sg28
g5
sg29
g5
sg30
g5
sg31
g5
sg32
g62
sg33
I368705
sg34
g5
sg35
g5
sg36
I463261
sg37
g65
sg38
I774401
sg39
g42
ssS'KEAN STEVEN J'
p633
(dp634
g3
I12754
sg4
g5
sg6
I41953
sg7
I00
sg8
g18
sg19
g9
(g13
S'\xec!*\xbf\x11\xc9\x03@'
p635
tp636
Rp637
sg23
I300000
sg24
S'steven.kean@enron.com'
p638
sg26
g5
sg27
I3639
sg28
g5
sg29
I6759
sg30
I1231
sg31
g5
sg32
I1000000
sg33
I6153642
sg34
I140
sg35
I387
sg36
I4131594
sg37
I404338
sg38
I1747522
sg39
I2022048
ssS'FOWLER PEGGY'
p639
(dp640
g3
I517
sg4
g5
sg6
g5
sg7
I00
sg8
g18
sg19
g9
(g13
S'\xad;\xf18p0\x07@'
p641
tp642
Rp643
sg23
g5
sg24
S'kulvinder.fowler@enron.com'
p644
sg26
g5
sg27
I10
sg28
g5
sg29
I36
sg30
g5
sg31
g5
sg32
g62
sg33
I1884748
sg34
I0
sg35
I0
sg36
I560170
sg37
g65
sg38
g5
sg39
I1324578
ssS'WASAFF GEORGE'
p645
(dp646
g3
I400
sg4
I831299
sg6
g5
sg7
I00
sg8
I-583325
sg19
g9
(g13
S'\xf4\xbaL*\x14\x00\xf4?'
p647
tp648
Rp649
sg23
I200000
sg24
S'george.wasaff@enron.com'
p650
sg26
g5
sg27
I337
sg28
g5
sg29
I30
sg30
I1425
sg31
g5
sg32
I325000
sg33
I2056427
sg34
I22
sg35
I7
sg36
I388167
sg37
I259996
sg38
I1034395
sg39
I1668260
ssS'WHITE JR THOMAS E'
p651
(dp652
g3
g5
sg4
g5
sg6
I81353
sg7
I00
sg8
g18
sg19
g9
(g13
S'7\xb1\x91u\x91\xac\xf6?'
p653
tp654
Rp655
sg23
g5
sg24
S'thomas.white@enron.com'
p656
sg26
g5
sg27
g5
sg28
g5
sg29
g5
sg30
I1085463
sg31
g5
sg32
I450000
sg33
I15144123
sg34
g5
sg35
g5
sg36
I13847074
sg37
I317543
sg38
I1934359
sg39
I1297049
ssS'CHRISTODOULOU DIOMEDES'
p657
(dp658
g3
g5
sg4
g5
sg6
g5
sg7
I00
sg8
g18
sg19
g9
(g13
S'\xad;\xf18p0\x07@'
p659
tp660
Rp661
sg23
g5
sg24
S'diomedes.christodoulou@enron.com'
p662
sg26
g5
sg27
g5
sg28
g5
sg29
g5
sg30
g5
sg31
g5
sg32
g62
sg33
I6077885
sg34
g5
sg35
g5
sg36
I950730
sg37
g65
sg38
g5
sg39
I5127155
ssS'ALLEN PHILLIP K'
p663
(dp664
g3
I2902
sg4
I2869717
sg6
I13868
sg7
I00
sg8
I-3081055
sg19
g9
(g13
S'\x94\x0e\xdc\xa0D\xac4@'
p665
tp666
Rp667
sg23
I304805
sg24
S'phillip.allen@enron.com'
p668
sg26
I-126027
sg27
I1407
sg28
g5
sg29
I2195
sg30
I152
sg31
g5
sg32
I4175000
sg33
I1729541
sg34
I47
sg35
I65
sg36
I126027
sg37
I201955
sg38
I4484442
sg39
I1729541
ssS'SHARP VICTORIA T'
p669
(dp670
g3
I3136
sg4
I187469
sg6
I116337
sg7
I00
sg8
g18
sg19
g9
(g13
S'\xe7\xe8)h\xecW\x03@'
p671
tp672
Rp673
sg23
I422158
sg24
S'vicki.sharp@enron.com'
p674
sg26
g5
sg27
I2477
sg28
g5
sg29
I136
sg30
I2401
sg31
g5
sg32
I600000
sg33
I494136
sg34
I24
sg35
I6
sg36
I213063
sg37
I248146
sg38
I1576511
sg39
I281073
ssS'JAEDICKE ROBERT'
p675
(dp676
g3
g5
sg4
g5
sg6
g5
sg7
I00
sg8
I-25000
sg19
g9
(g13
S'\xad;\xf18p0\x07@'
p677
tp678
Rp679
sg23
g5
sg24
g5
sg26
I-44093
sg27
g5
sg28
g5
sg29
g5
sg30
g5
sg31
I108750
sg32
g62
sg33
I431750
sg34
g5
sg35
g5
sg36
I44093
sg37
g65
sg38
I83750
sg39
I431750
ssS'WINOKUR JR. HERBERT S'
p680
(dp681
g3
g5
sg4
g5
sg6
I1413
sg7
I00
sg8
I-25000
sg19
g9
(g13
S'\xad;\xf18p0\x07@'
p682
tp683
Rp684
sg23
g5
sg24
g5
sg26
g5
sg27
g5
sg28
g5
sg29
g5
sg30
g5
sg31
I108579
sg32
g62
sg33
g116
sg34
g5
sg35
g5
sg36
g5
sg37
g65
sg38
I84992
sg39
g42
ssS'BROWN MICHAEL'
p685
(dp686
g3
I1486
sg4
g5
sg6
I49288
sg7
I00
sg8
g18
sg19
g9
(g13
S'\xad;\xf18p0\x07@'
p687
tp688
Rp689
sg23
g5
sg24
S'michael.brown@enron.com'
p690
sg26
g5
sg27
I761
sg28
g5
sg29
I41
sg30
g5
sg31
g5
sg32
g62
sg33
g116
sg34
I13
sg35
I1
sg36
g5
sg37
g65
sg38
I49288
sg39
g42
ssS'BADUM JAMES P'
p691
(dp692
g3
g5
sg4
I178980
sg6
I3486
sg7
I00
sg8
g18
sg19
g9
(g13
S'\xad;\xf18p0\x07@'
p693
tp694
Rp695
sg23
g5
sg24
g5
sg26
g5
sg27
g5
sg28
g5
sg29
g5
sg30
g5
sg31
g5
sg32
g62
sg33
I257817
sg34
g5
sg35
g5
sg36
g5
sg37
g65
sg38
I182466
sg39
I257817
ssS'HUGHES JAMES A'
p696
(dp697
g3
I719
sg4
g5
sg6
g5
sg7
I00
sg8
g18
sg19
g9
(g13
S'\xad;\xf18p0\x07@'
p698
tp699
Rp700
sg23
g5
sg24
S'james.hughes@enron.com'
p701
sg26
g5
sg27
I589
sg28
g5
sg29
I34
sg30
g5
sg31
g5
sg32
g62
sg33
I1118394
sg34
I35
sg35
I5
sg36
I363428
sg37
g65
sg38
g5
sg39
I754966
ssS'REYNOLDS LAWRENCE'
p702
(dp703
g3
g5
sg4
I51365
sg6
I8409
sg7
I00
sg8
I-200000
sg19
g9
(g13
S'\x95)\xda\xa3S\xf1\xf4?'
p704
tp705
Rp706
sg23
I156250
sg24
g5
sg26
I-140264
sg27
g5
sg28
g5
sg29
g5
sg30
I202052
sg31
g5
sg32
I100000
sg33
I4221891
sg34
g5
sg35
g5
sg36
I201483
sg37
I76399
sg38
I394475
sg39
I4160672
ssS'DIMICHELE RICHARD G'
p707
(dp708
g3
g5
sg4
g5
sg6
I35812
sg7
I00
sg8
g18
sg19
g9
(g13
S'\xd1\x91\xf3\xb5Zq\x0e@'
p709
tp710
Rp711
sg23
I694862
sg24
S'richard.dimichele@enron.com'
p712
sg26
g5
sg27
g5
sg28
g5
sg29
g5
sg30
I374689
sg31
g5
sg32
I1000000
sg33
I8317782
sg34
g5
sg35
g5
sg36
I126027
sg37
I262788
sg38
I2368151
sg39
I8191755
ssS'BHATNAGAR SANJAY'
p713
(dp714
g3
I523
sg4
g5
sg6
g5
sg7
I00
sg8
g18
sg19
g9
(g13
S'\xad;\xf18p0\x07@'
p715
tp716
Rp717
sg23
g5
sg24
S'sanjay.bhatnagar@enron.com'
p718
sg26
I15456290
sg27
I463
sg28
g5
sg29
I29
sg30
I137864
sg31
I137864
sg32
g62
sS'total_stock_value'
p719
g116
sg34
I0
sg35
I1
sg36
I-2604490
sg37
g65
sg38
I15456290
sg39
I2604490
ssS'CARTER REBECCA C'
p720
(dp721
g3
I312
sg4
g5
sg6
g5
sg7
I00
sg8
I-159792
sg19
g9
(g13
S'\xd6\xa7sx\x7fU\xf2?'
p722
tp723
Rp724
sg23
I75000
sg24
S'rebecca.carter@enron.com'
p725
sg26
I-307301
sg27
I196
sg28
g5
sg29
I15
sg30
I540
sg31
g5
sg32
I300000
sg33
g116
sg34
I29
sg35
I7
sg36
I307301
sg37
I261809
sg38
I477557
sg39
g42
ssS'BUCHANAN HAROLD G'
p726
(dp727
g3
I1088
sg4
g5
sg6
I600
sg7
I00
sg8
g18
sg19
g9
(g13
S'\xf1\xec\x1f\xce\xbf \x00@'
p728
tp729
Rp730
sg23
I304805
sg24
S'john.buchanan@enron.com'
p731
sg26
g5
sg27
I23
sg28
g5
sg29
I125
sg30
I1215
sg31
g5
sg32
I500000
sg33
I1014505
sg34
I0
sg35
I0
sg36
I189041
sg37
I248017
sg38
I1054637
sg39
I825464
ssS'YEAP SOON'
p732
(dp733
g3
g5
sg4
g5
sg6
I55097
sg7
I00
sg8
g18
sg19
g9
(g13
S'\xad;\xf18p0\x07@'
p734
tp735
Rp736
sg23
g5
sg24
g5
sg26
g5
sg27
g5
sg28
g5
sg29
g5
sg30
g5
sg31
g5
sg32
g62
sg33
I192758
sg34
g5
sg35
g5
sg36
g5
sg37
g65
sg38
I55097
sg39
I192758
ssS'MURRAY JULIA H'
p737
(dp738
g3
I2192
sg4
g5
sg6
I57580
sg7
I00
sg8
g18
sg19
g9
(g13
S"\x05$'$\xb9\xe9\xfb?"
p739
tp740
Rp741
sg23
I125000
sg24
S'julia.murray@enron.com'
p742
sg26
g5
sg27
I395
sg28
g5
sg29
I45
sg30
I330
sg31
g5
sg32
I400000
sg33
I597461
sg34
I11
sg35
I2
sg36
I196983
sg37
I229284
sg38
I812194
sg39
I400478
ssS'GARLAND C KEVIN'
p743
(dp744
g3
I209
sg4
g5
sg6
I48405
sg7
I00
sg8
g18
sg19
g9
(g13
S'\xc9\xc0\xf8\xf61Q\r@'
p745
tp746
Rp747
sg23
I375304
sg24
S'kevin.garland@enron.com'
p748
sg26
g5
sg27
I178
sg28
g5
sg29
I44
sg30
I60814
sg31
g5
sg32
I850000
sg33
I896153
sg34
I10
sg35
I27
sg36
I259907
sg37
I231946
sg38
I1566469
sg39
I636246
ssS'DODSON KEITH'
p749
(dp750
g3
I176
sg4
g5
sg6
I28164
sg7
I00
sg8
g18
sg19
g9
(g13
S'RH\x9a\x8bnE\xd4?'
p751
tp752
Rp753
sg23
g5
sg24
S'keith.dodson@enron.com'
p754
sg26
g5
sg27
I114
sg28
g5
sg29
I14
sg30
I774
sg31
g5
sg32
I70000
sg33
g116
sg34
I10
sg35
I3
sg36
g5
sg37
I221003
sg38
I319941
sg39
g42
ssS'YEAGER F SCOTT'
p755
(dp756
g3
g5
sg4
g5
sg6
I53947
sg7
I01
sg8
g18
sg19
g9
(g13
S'\xc5g%\x9dd\xf0\x12@'
p757
tp758
Rp759
sg23
g5
sg24
S'scott.yeager@enron.com'
p760
sg26
g5
sg27
g5
sg28
g5
sg29
g5
sg30
I147950
sg31
g5
sg32
g62
sg33
I11884758
sg34
g5
sg35
g5
sg36
I3576206
sg37
I158403
sg38
I360300
sg39
I8308552
ssS'HIRKO JOSEPH'
p761
(dp762
g3
g5
sg4
I10259
sg6
I77978
sg7
I01
sg8
g18
sg19
g9
(g13
S'\xad;\xf18p0\x07@'
p763
tp764
Rp765
sg23
g5
sg24
S'joe.hirko@enron.com'
p766
sg26
g5
sg27
g5
sg28
g5
sg29
g5
sg30
I2856
sg31
g5
sg32
g62
sg33
I30766064
sg34
g5
sg35
g5
sg36
g5
sg37
g65
sg38
I91093
sg39
I30766064
ssS'DIETRICH JANET R'
p767
(dp768
g3
I2572
sg4
g5
sg6
I3475
sg7
I00
sg8
g18
sg19
g9
(g13
S'\x10;\xb3\x15<1\x03@'
p769
tp770
Rp771
sg23
I556416
sg24
S'janet.dietrich@enron.com'
p772
sg26
g5
sg27
I1902
sg28
g5
sg29
I63
sg30
I473
sg31
g5
sg32
I600000
sg33
I1865087
sg34
I305
sg35
I14
sg36
I315068
sg37
I250100
sg38
I1410464
sg39
I1550019
ssS'DERRICK JR. JAMES V'
p773
(dp774
g3
I2181
sg4
g5
sg6
I51124
sg7
I00
sg8
I-1284000
sg19
g9
(g13
S'\xecyd\x12\x17\xff\xf9?'
p775
tp776
Rp777
sg23
I484000
sg24
S'james.derrick@enron.com'
p778
sg26
I-1787380
sg27
I1401
sg28
g5
sg29
I909
sg30
I7482
sg31
g5
sg32
I800000
sg33
I8831913
sg34
I64
sg35
I20
sg36
I1787380
sg37
I492375
sg38
I550981
sg39
I8831913
ssS'FREVERT MARK A'
p779
(dp780
g3
I3275
sg4
I6426990
sg6
I86987
sg7
I00
sg8
I-3367011
sg19
g9
(g13
S'\r\xd5\xc0E\x83)\xfe?'
p781
tp782
Rp783
sg23
I1617011
sg24
S'mark.frevert@enron.com'
p784
sg26
g5
sg27
I2979
sg28
I2000000
sg29
I21
sg30
I7427621
sg31
g5
sg32
I2000000
sg33
I14622185
sg34
I242
sg35
I6
sg36
I4188667
sg37
I1060932
sg38
I17252530
sg39
I10433518
ssS'PAI LOU L'
p785
(dp786
g3
g5
sg4
g5
sg6
I32047
sg7
I00
sg8
g18
sg19
g9
(g13
S'\xfc\x18\xdf\xd5g\x8c\x0e@'
p787
tp788
Rp789
sg23
g5
sg24
S'lou.pai@enron.com'
p790
sg26
g5
sg27
g5
sg28
g5
sg29
g5
sg30
I1829457
sg31
g5
sg32
I1000000
sg33
I23817930
sg34
g5
sg35
g5
sg36
I8453763
sg37
I261879
sg38
I3123383
sg39
I15364167
ssS'BAY FRANKLIN R'
p791
(dp792
g3
g5
sg4
I260455
sg6
I129142
sg7
I00
sg8
I-201641
sg19
g9
(g13
S'gH\x01\xa9\t\xb4\xfa?'
p793
tp794
Rp795
sg23
g5
sg24
S'frank.bay@enron.com'
p796
sg26
I-82782
sg27
g5
sg28
g5
sg29
g5
sg30
I69
sg31
g5
sg32
I400000
sg33
I63014
sg34
g5
sg35
g5
sg36
I145796
sg37
I239671
sg38
I827696
sg39
g42
ssS'HAYSLETT RODERICK J'
p797
(dp798
g3
I2649
sg4
g5
sg6
g5
sg7
I00
sg8
g18
sg19
g9
(g13
S'\xad;\xf18p0\x07@'
p799
tp800
Rp801
sg23
g5
sg24
S'rod.hayslett@enron.com'
p802
sg26
g5
sg27
I571
sg28
g5
sg29
I1061
sg30
g5
sg31
g5
sg32
g62
sg33
I346663
sg34
I35
sg35
I38
sg36
I346663
sg37
g65
sg38
g5
sg39
g42
ssS'FUGH JOHN L'
p803
(dp804
g3
g5
sg4
I50591
sg6
g5
sg7
I00
sg8
g18
sg19
g9
(g13
S'\xad;\xf18p0\x07@'
p805
tp806
Rp807
sg23
g5
sg24
g5
sg26
g5
sg27
g5
sg28
g5
sg29
g5
sg30
g5
sg31
g5
sg32
g62
sg33
I176378
sg34
g5
sg35
g5
sg36
g5
sg37
g65
sg38
I50591
sg39
I176378
ssS'FALLON JAMES B'
p808
(dp809
g3
I1755
sg4
g5
sg6
I95924
sg7
I00
sg8
g18
sg19
g9
(g13
S'\x92{\xe4\xe2ej @'
p810
tp811
Rp812
sg23
I374347
sg24
S'jim.fallon@enron.com'
p813
sg26
g5
sg27
I1604
sg28
g5
sg29
I75
sg30
I401481
sg31
g5
sg32
I2500000
sg33
I2332399
sg34
I42
sg35
I37
sg36
I1392142
sg37
I304588
sg38
I3676340
sg39
I940257
ssS'KOENIG MARK E'
p814
(dp815
g3
I2374
sg4
g5
sg6
I127017
sg7
I01
sg8
g18
sg19
g9
(g13
S'\x18\xb1wcR\x11\x02@'
p816
tp817
Rp818
sg23
I300000
sg24
S'mark.koenig@enron.com'
p819
sg26
g5
sg27
I2271
sg28
g5
sg29
I61
sg30
I150458
sg31
g5
sg32
I700000
sg33
I1920055
sg34
I53
sg35
I15
sg36
I1248318
sg37
I309946
sg38
I1587421
sg39
I671737
ssS'SAVAGE FRANK'
p820
(dp821
g3
g5
sg4
g5
sg6
g5
sg7
I00
sg8
I-121284
sg19
g9
(g13
S'\xad;\xf18p0\x07@'
p822
tp823
Rp824
sg23
g5
sg24
g5
sg26
g5
sg27
g5
sg28
g5
sg29
g5
sg30
g5
sg31
I125034
sg32
g62
sg33
g116
sg34
g5
sg35
g5
sg36
g5
sg37
g65
sg38
I3750
sg39
g42
ssS'IZZO LAWRENCE L'
p825
(dp826
g3
I496
sg4
g5
sg6
I28093
sg7
I00
sg8
g18
sg19
g9
(g13
S'S]\xad\x8e!\x97!@'
p827
tp828
Rp829
sg23
I312500
sg24
S'larry.izzo@enron.com'
p830
sg26
g5
sg27
I437
sg28
g5
sg29
I19
sg30
I1553729
sg31
g5
sg32
g62
sg33
I5819980
sg34
I28
sg35
I5
sg36
I3654808
sg37
I85274
sg38
I1979596
sg39
I2165172
ssS'TILNEY ELIZABETH A'
p831
(dp832
g3
I460
sg4
g5
sg6
g5
sg7
I00
sg8
I-575000
sg19
g9
(g13
S'\xa2Qa\xaf\x19h\xf3?'
p833
tp834
Rp835
sg23
I275000
sg24
S'elizabeth.tilney@enron.com'
p836
sg26
g5
sg27
I379
sg28
g5
sg29
I19
sg30
I152055
sg31
g5
sg32
I300000
sg33
I1168042
sg34
I10
sg35
I11
sg36
I576792
sg37
I247338
sg38
I399393
sg39
I591250
ssS'MARTIN AMANDA K'
p837
(dp838
g3
I1522
sg4
I85430
sg6
I8211
sg7
I00
sg8
g18
sg19
g9
(g13
S'\x12g(e\x03+\x01@'
p839
tp840
Rp841
sg23
I5145434
sg24
S'a..martin@enron.com'
p842
sg26
g5
sg27
I477
sg28
g5
sg29
I230
sg30
I2818454
sg31
g5
sg32
g62
sg33
I2070306
sg34
I8
sg35
I0
sg36
g5
sg37
I349487
sg38
I8407016
sg39
I2070306
ssS'BUY RICHARD B'
p843
(dp844
g3
I3523
sg4
I649584
sg6
g5
sg7
I00
sg8
I-694862
sg19
g9
(g13
S'1T\xdey:\xc8\x05@'
p845
tp846
Rp847
sg23
I769862
sg24
S'rick.buy@enron.com'
p848
sg26
g5
sg27
I2333
sg28
g5
sg29
I1053
sg30
I400572
sg31
g5
sg32
I900000
sg33
I3444470
sg34
I156
sg35
I71
sg36
I901657
sg37
I330546
sg38
I2355702
sg39
I2542813
ssS'GRAMM WENDY L'
p849
(dp850
g3
g5
sg4
g5
sg6
g5
sg7
I00
sg8
g18
sg19
g9
(g13
S'\xad;\xf18p0\x07@'
p851
tp852
Rp853
sg23
g5
sg24
g5
sg26
g5
sg27
g5
sg28
g5
sg29
g5
sg30
g5
sg31
I119292
sg32
g62
sg33
g116
sg34
g5
sg35
g5
sg36
g5
sg37
g65
sg38
I119292
sg39
g42
ssS'CAUSEY RICHARD A'
p854
(dp855
g3
I1892
sg4
g5
sg6
I30674
sg7
I01
sg8
I-235000
sg19
g9
(g13
S'\x9d\x1aW|\xb1D\x03@'
p856
tp857
Rp858
sg23
I350000
sg24
S'richard.causey@enron.com'
p859
sg26
g5
sg27
I1585
sg28
g5
sg29
I49
sg30
I307895
sg31
g5
sg32
I1000000
sg33
I2502063
sg34
I58
sg35
I12
sg36
I2502063
sg37
I415189
sg38
I1868758
sg39
g42
ssS'TAYLOR MITCHELL S'
p860
(dp861
g3
I533
sg4
I227449
sg6
g5
sg7
I00
sg8
g18
sg19
g9
(g13
S'\xf8\xc7\xa0T=\x19\x02@'
p862
tp863
Rp864
sg23
g5
sg24
S'mitchell.taylor@enron.com'
p865
sg26
g5
sg27
I300
sg28
g5
sg29
I29
sg30
g5
sg31
g5
sg32
I600000
sg33
I3745048
sg34
I0
sg35
I0
sg36
I563798
sg37
I265214
sg38
I1092663
sg39
I3181250
ssS'DONAHUE JR JEFFREY M'
p866
(dp867
g3
I865
sg4
g5
sg6
I96268
sg7
I00
sg8
I-300000
sg19
g9
(g13
S'\x18\xd7\xc3\xc6\xcf\xf8\x06@'
p868
tp869
Rp870
sg23
g5
sg24
S'jeff.donahue@enron.com'
p871
sg26
g5
sg27
I772
sg28
g5
sg29
I22
sg30
I891
sg31
g5
sg32
I800000
sg33
I1080988
sg34
I188
sg35
I11
sg36
I315068
sg37
I278601
sg38
I875760
sg39
I765920
ssS'GLISAN JR BEN F'
p872
(dp873
g3
I873
sg4
g5
sg6
I125978
sg7
I01
sg8
g18
sg19
g9
(g13
S'\xd3&d\x17\xc5t\x01@'
p874
tp875
Rp876
sg23
I71023
sg24
S'ben.glisan@enron.com'
p877
sg26
g5
sg27
I874
sg28
g5
sg29
I16
sg30
I200308
sg31
g5
sg32
I600000
sg33
I778546
sg34
I52
sg35
I6
sg36
I393818
sg37
I274975
sg38
I1272284
sg39
I384728
ss.